; Function Attrs: nounwind uwtable
define noalias nonnull ptr @l_Lean_Elab_Term_addNamedArg___lambda__1___boxed(ptr noundef %0, ptr noundef %1, ptr noundef %2, ptr noundef %3, ptr noundef %4, ptr noundef %5, ptr noundef %6, ptr noundef %7) local_unnamed_addr #0 {
  %9 = tail call ptr @lean_array_push(ptr noundef %0, ptr noundef %1) #3
  tail call void @lean_inc_heartbeat() #3
  %10 = tail call noalias ptr @mi_malloc_small(i64 noundef 24) #3
  %11 = icmp eq ptr %10, null
  br i1 %11, label %12, label %l_Lean_Elab_Term_addNamedArg___lambda__1.exit

12:                                               ; preds = %8
  tail call void @lean_internal_panic_out_of_memory() #4
  unreachable

l_Lean_Elab_Term_addNamedArg___lambda__1.exit:    ; preds = %8
  %13 = getelementptr inbounds nuw i8, ptr %10, i64 4
  store i32 1, ptr %10, align 4, !tbaa !8
  store i32 131096, ptr %13, align 4
  %14 = getelementptr inbounds nuw i8, ptr %10, i64 8
  store ptr %9, ptr %14, align 8, !tbaa !4
  %15 = getelementptr inbounds nuw i8, ptr %10, i64 16
  store ptr %7, ptr %15, align 8, !tbaa !4
  %16 = ptrtoint ptr %6 to i64
  %17 = and i64 %16, 1
  %.not = icmp eq i64 %17, 0
  br i1 %.not, label %18, label %lean_dec.exit17

18:                                               ; preds = %l_Lean_Elab_Term_addNamedArg___lambda__1.exit
  %19 = load i32, ptr %6, align 4, !tbaa !8
  %20 = icmp sgt i32 %19, 1
  br i1 %20, label %21, label %23, !prof !11

21:                                               ; preds = %18
  %22 = add nsw i32 %19, -1
  store i32 %22, ptr %6, align 4, !tbaa !8
  br label %lean_dec.exit17

23:                                               ; preds = %18
  %.not.i = icmp eq i32 %19, 0
  br i1 %.not.i, label %lean_dec.exit17, label %24

24:                                               ; preds = %23
  tail call void @lean_dec_ref_cold(ptr noundef nonnull %6) #3
  br label %lean_dec.exit17

lean_dec.exit17:                                  ; preds = %24, %23, %21, %l_Lean_Elab_Term_addNamedArg___lambda__1.exit
  %25 = ptrtoint ptr %5 to i64
  %26 = and i64 %25, 1
  %.not26 = icmp eq i64 %26, 0
  br i1 %.not26, label %27, label %lean_dec.exit16

27:                                               ; preds = %lean_dec.exit17
  %28 = load i32, ptr %5, align 4, !tbaa !8
  %29 = icmp sgt i32 %28, 1
  br i1 %29, label %30, label %32, !prof !11

30:                                               ; preds = %27
  %31 = add nsw i32 %28, -1
  store i32 %31, ptr %5, align 4, !tbaa !8
  br label %lean_dec.exit16

32:                                               ; preds = %27
  %.not.i18 = icmp eq i32 %28, 0
  br i1 %.not.i18, label %lean_dec.exit16, label %33

33:                                               ; preds = %32
  tail call void @lean_dec_ref_cold(ptr noundef nonnull %5) #3
  br label %lean_dec.exit16

lean_dec.exit16:                                  ; preds = %33, %32, %30, %lean_dec.exit17
  %34 = ptrtoint ptr %4 to i64
  %35 = and i64 %34, 1
  %.not27 = icmp eq i64 %35, 0
  br i1 %.not27, label %36, label %lean_dec.exit15

36:                                               ; preds = %lean_dec.exit16
  %37 = load i32, ptr %4, align 4, !tbaa !8
  %38 = icmp sgt i32 %37, 1
  br i1 %38, label %39, label %41, !prof !11

39:                                               ; preds = %36
  %40 = add nsw i32 %37, -1
  store i32 %40, ptr %4, align 4, !tbaa !8
  br label %lean_dec.exit15

41:                                               ; preds = %36
  %.not.i20 = icmp eq i32 %37, 0
  br i1 %.not.i20, label %lean_dec.exit15, label %42

42:                                               ; preds = %41
  tail call void @lean_dec_ref_cold(ptr noundef nonnull %4) #3
  br label %lean_dec.exit15

lean_dec.exit15:                                  ; preds = %42, %41, %39, %lean_dec.exit16
  %43 = ptrtoint ptr %3 to i64
  %44 = and i64 %43, 1
  %.not28 = icmp eq i64 %44, 0
  br i1 %.not28, label %45, label %lean_dec.exit14

45:                                               ; preds = %lean_dec.exit15
  %46 = load i32, ptr %3, align 4, !tbaa !8
  %47 = icmp sgt i32 %46, 1
  br i1 %47, label %48, label %50, !prof !11

48:                                               ; preds = %45
  %49 = add nsw i32 %46, -1
  store i32 %49, ptr %3, align 4, !tbaa !8
  br label %lean_dec.exit14

50:                                               ; preds = %45
  %.not.i22 = icmp eq i32 %46, 0
  br i1 %.not.i22, label %lean_dec.exit14, label %51

51:                                               ; preds = %50
  tail call void @lean_dec_ref_cold(ptr noundef nonnull %3) #3
  br label %lean_dec.exit14

lean_dec.exit14:                                  ; preds = %51, %50, %48, %lean_dec.exit15
  %52 = ptrtoint ptr %2 to i64
  %53 = and i64 %52, 1
  %.not29 = icmp eq i64 %53, 0
  br i1 %.not29, label %54, label %lean_dec.exit

54:                                               ; preds = %lean_dec.exit14
  %55 = load i32, ptr %2, align 4, !tbaa !8
  %56 = icmp sgt i32 %55, 1
  br i1 %56, label %57, label %59, !prof !11

57:                                               ; preds = %54
  %58 = add nsw i32 %55, -1
  store i32 %58, ptr %2, align 4, !tbaa !8
  br label %lean_dec.exit

59:                                               ; preds = %54
  %.not.i24 = icmp eq i32 %55, 0
  br i1 %.not.i24, label %lean_dec.exit, label %60

60:                                               ; preds = %59
  tail call void @lean_dec_ref_cold(ptr noundef nonnull %2) #3
  br label %lean_dec.exit

lean_dec.exit:                                    ; preds = %60, %59, %57, %lean_dec.exit14
  ret ptr %10
}